; Function Attrs: nounwind uwtable
define noalias noundef nonnull ptr @l_Lean_IR_Borrow_markModified___rarg(ptr noundef %0) #1 {
  %.val = load i32, ptr %0, align 4, !tbaa !4
  %2 = icmp eq i32 %.val, 1
  br i1 %2, label %3, label %8

3:                                                ; preds = %1
  %4 = getelementptr inbounds nuw i8, ptr %0, i64 24
  store i8 1, ptr %4, align 1, !tbaa !16
  tail call void @lean_inc_heartbeat() #6
  %5 = tail call noalias ptr @mi_malloc_small(i64 noundef 24) #6
  %6 = icmp eq ptr %5, null
  br i1 %6, label %7, label %lean_alloc_ctor.exit

7:                                                ; preds = %3
  tail call void @lean_internal_panic_out_of_memory() #7
  unreachable

8:                                                ; preds = %1
  %9 = getelementptr inbounds nuw i8, ptr %0, i64 8
  %10 = load ptr, ptr %9, align 8, !tbaa !9
  %11 = getelementptr inbounds nuw i8, ptr %0, i64 16
  %12 = load ptr, ptr %11, align 8, !tbaa !9
  %13 = ptrtoint ptr %12 to i64
  %14 = and i64 %13, 1
  %.not = icmp eq i64 %14, 0
  br i1 %.not, label %15, label %lean_inc.exit25

15:                                               ; preds = %8
  %.val.i = load i32, ptr %12, align 4, !tbaa !4
  %16 = icmp sgt i32 %.val.i, 0
  br i1 %16, label %17, label %19, !prof !11

17:                                               ; preds = %15
  %18 = add nuw i32 %.val.i, 1
  store i32 %18, ptr %12, align 4, !tbaa !4
  br label %lean_inc.exit25

19:                                               ; preds = %15
  %.not.i26 = icmp eq i32 %.val.i, 0
  br i1 %.not.i26, label %lean_inc.exit25, label %20

20:                                               ; preds = %19
  tail call void @lean_inc_ref_cold(ptr noundef nonnull %12) #6
  br label %lean_inc.exit25

lean_inc.exit25:                                  ; preds = %20, %19, %17, %8
  %21 = ptrtoint ptr %10 to i64
  %22 = and i64 %21, 1
  %.not32 = icmp eq i64 %22, 0
  br i1 %.not32, label %23, label %lean_inc.exit

23:                                               ; preds = %lean_inc.exit25
  %.val.i27 = load i32, ptr %10, align 4, !tbaa !4
  %24 = icmp sgt i32 %.val.i27, 0
  br i1 %24, label %25, label %27, !prof !11

25:                                               ; preds = %23
  %26 = add nuw i32 %.val.i27, 1
  store i32 %26, ptr %10, align 4, !tbaa !4
  br label %lean_inc.exit

27:                                               ; preds = %23
  %.not.i28 = icmp eq i32 %.val.i27, 0
  br i1 %.not.i28, label %lean_inc.exit, label %28

28:                                               ; preds = %27
  tail call void @lean_inc_ref_cold(ptr noundef nonnull %10) #6
  br label %lean_inc.exit

lean_inc.exit:                                    ; preds = %28, %27, %25, %lean_inc.exit25
  %29 = ptrtoint ptr %0 to i64
  %30 = and i64 %29, 1
  %.not33 = icmp eq i64 %30, 0
  br i1 %.not33, label %31, label %lean_dec.exit

31:                                               ; preds = %lean_inc.exit
  %32 = load i32, ptr %0, align 4, !tbaa !4
  %33 = icmp sgt i32 %32, 1
  br i1 %33, label %34, label %36, !prof !11

34:                                               ; preds = %31
  %35 = add nsw i32 %32, -1
  store i32 %35, ptr %0, align 4, !tbaa !4
  br label %lean_dec.exit

36:                                               ; preds = %31
  %.not.i = icmp eq i32 %32, 0
  br i1 %.not.i, label %lean_dec.exit, label %37

37:                                               ; preds = %36
  tail call void @lean_dec_ref_cold(ptr noundef nonnull %0) #6
  br label %lean_dec.exit

lean_dec.exit:                                    ; preds = %37, %36, %34, %lean_inc.exit
  tail call void @lean_inc_heartbeat() #6
  %38 = tail call noalias ptr @mi_malloc_small(i64 noundef 32) #6
  %39 = icmp eq ptr %38, null
  br i1 %39, label %40, label %lean_alloc_ctor.exit30

40:                                               ; preds = %lean_dec.exit
  tail call void @lean_internal_panic_out_of_memory() #7
  unreachable

lean_alloc_ctor.exit30:                           ; preds = %lean_dec.exit
  %41 = getelementptr inbounds nuw i8, ptr %38, i64 4
  %42 = getelementptr inbounds nuw i8, ptr %38, i64 24
  store i64 1, ptr %42, align 8, !tbaa !13
  store i32 1, ptr %38, align 4, !tbaa !4
  store i32 131104, ptr %41, align 4
  %43 = getelementptr inbounds nuw i8, ptr %38, i64 8
  store ptr %10, ptr %43, align 8, !tbaa !9
  %44 = getelementptr inbounds nuw i8, ptr %38, i64 16
  store ptr %12, ptr %44, align 8, !tbaa !9
  tail call void @lean_inc_heartbeat() #6
  %45 = tail call noalias ptr @mi_malloc_small(i64 noundef 24) #6
  %46 = icmp eq ptr %45, null
  br i1 %46, label %47, label %lean_alloc_ctor.exit

47:                                               ; preds = %lean_alloc_ctor.exit30
  tail call void @lean_internal_panic_out_of_memory() #7
  unreachable

lean_alloc_ctor.exit:                             ; preds = %lean_alloc_ctor.exit30, %3
  %.sink40 = phi ptr [ %5, %3 ], [ %45, %lean_alloc_ctor.exit30 ]
  %.sink = phi ptr [ %0, %3 ], [ %38, %lean_alloc_ctor.exit30 ]
  %48 = getelementptr inbounds nuw i8, ptr %.sink40, i64 4
  store i32 1, ptr %.sink40, align 4, !tbaa !4
  store i32 131096, ptr %48, align 4
  %49 = getelementptr inbounds nuw i8, ptr %.sink40, i64 8
  store ptr inttoptr (i64 1 to ptr), ptr %49, align 8, !tbaa !9
  %50 = getelementptr inbounds nuw i8, ptr %.sink40, i64 16
  store ptr %.sink, ptr %50, align 8, !tbaa !9
  ret ptr %.sink40
}